target datalayout = "e-m:e-p270:32:32-p271:32:32-p272:64:64-i64:64-i128:128-f80:128-n8:16:32:64-S128"
target triple = "x86_64-pc-linux-gnu"

%struct.JSON_Generator_StateStruct = type { i64, i64, i64, i64, i64, i64, i64, i64, i64, i8, i8, i8, i8 }

; Function Attrs: nounwind sspstrong uwtable
define internal void @State_compact(ptr noundef %0) #0 {
  %2 = alloca ptr, align 8
  %3 = alloca ptr, align 8
  store ptr %0, ptr %2, align 8, !tbaa !48
  call void @llvm.lifetime.start.p0(i64 8, ptr %3) #27
  %4 = load ptr, ptr %2, align 8, !tbaa !48
  store ptr %4, ptr %3, align 8, !tbaa !12
  %5 = load ptr, ptr %3, align 8, !tbaa !12
  %6 = getelementptr inbounds nuw %struct.JSON_Generator_StateStruct, ptr %5, i32 0, i32 0
  %7 = load i64, ptr %6, align 8, !tbaa !17
  %8 = call i64 @rb_gc_location(i64 noundef %7)
  %9 = load ptr, ptr %3, align 8, !tbaa !12
  %10 = getelementptr inbounds nuw %struct.JSON_Generator_StateStruct, ptr %9, i32 0, i32 0
  store i64 %8, ptr %10, align 8, !tbaa !17
  %11 = load ptr, ptr %3, align 8, !tbaa !12
  %12 = getelementptr inbounds nuw %struct.JSON_Generator_StateStruct, ptr %11, i32 0, i32 1
  %13 = load i64, ptr %12, align 8, !tbaa !20
  %14 = call i64 @rb_gc_location(i64 noundef %13)
  %15 = load ptr, ptr %3, align 8, !tbaa !12
  %16 = getelementptr inbounds nuw %struct.JSON_Generator_StateStruct, ptr %15, i32 0, i32 1
  store i64 %14, ptr %16, align 8, !tbaa !20
  %17 = load ptr, ptr %3, align 8, !tbaa !12
  %18 = getelementptr inbounds nuw %struct.JSON_Generator_StateStruct, ptr %17, i32 0, i32 2
  %19 = load i64, ptr %18, align 8, !tbaa !21
  %20 = call i64 @rb_gc_location(i64 noundef %19)
  %21 = load ptr, ptr %3, align 8, !tbaa !12
  %22 = getelementptr inbounds nuw %struct.JSON_Generator_StateStruct, ptr %21, i32 0, i32 2
  store i64 %20, ptr %22, align 8, !tbaa !21
  %23 = load ptr, ptr %3, align 8, !tbaa !12
  %24 = getelementptr inbounds nuw %struct.JSON_Generator_StateStruct, ptr %23, i32 0, i32 3
  %25 = load i64, ptr %24, align 8, !tbaa !22
  %26 = call i64 @rb_gc_location(i64 noundef %25)
  %27 = load ptr, ptr %3, align 8, !tbaa !12
  %28 = getelementptr inbounds nuw %struct.JSON_Generator_StateStruct, ptr %27, i32 0, i32 3
  store i64 %26, ptr %28, align 8, !tbaa !22
  %29 = load ptr, ptr %3, align 8, !tbaa !12
  %30 = getelementptr inbounds nuw %struct.JSON_Generator_StateStruct, ptr %29, i32 0, i32 4
  %31 = load i64, ptr %30, align 8, !tbaa !23
  %32 = call i64 @rb_gc_location(i64 noundef %31)
  %33 = load ptr, ptr %3, align 8, !tbaa !12
  %34 = getelementptr inbounds nuw %struct.JSON_Generator_StateStruct, ptr %33, i32 0, i32 4
  store i64 %32, ptr %34, align 8, !tbaa !23
  %35 = load ptr, ptr %3, align 8, !tbaa !12
  %36 = getelementptr inbounds nuw %struct.JSON_Generator_StateStruct, ptr %35, i32 0, i32 5
  %37 = load i64, ptr %36, align 8, !tbaa !24
  %38 = call i64 @rb_gc_location(i64 noundef %37)
  %39 = load ptr, ptr %3, align 8, !tbaa !12
  %40 = getelementptr inbounds nuw %struct.JSON_Generator_StateStruct, ptr %39, i32 0, i32 5
  store i64 %38, ptr %40, align 8, !tbaa !24
  call void @llvm.lifetime.end.p0(i64 8, ptr %3) #27
  ret void
}