; Function Attrs: nounwind sspstrong uwtable
define internal void @State_compact(ptr noundef captures(none) %0) #0 {
  %2 = load i64, ptr %0, align 8, !tbaa !25
  %3 = tail call i64 @rb_gc_location(i64 noundef %2) #22
  store i64 %3, ptr %0, align 8, !tbaa !25
  %4 = getelementptr inbounds nuw i8, ptr %0, i64 8
  %5 = load i64, ptr %4, align 8, !tbaa !26
  %6 = tail call i64 @rb_gc_location(i64 noundef %5) #22
  store i64 %6, ptr %4, align 8, !tbaa !26
  %7 = getelementptr inbounds nuw i8, ptr %0, i64 16
  %8 = load i64, ptr %7, align 8, !tbaa !27
  %9 = tail call i64 @rb_gc_location(i64 noundef %8) #22
  store i64 %9, ptr %7, align 8, !tbaa !27
  %10 = getelementptr inbounds nuw i8, ptr %0, i64 24
  %11 = load i64, ptr %10, align 8, !tbaa !28
  %12 = tail call i64 @rb_gc_location(i64 noundef %11) #22
  store i64 %12, ptr %10, align 8, !tbaa !28
  %13 = getelementptr inbounds nuw i8, ptr %0, i64 32
  %14 = load i64, ptr %13, align 8, !tbaa !29
  %15 = tail call i64 @rb_gc_location(i64 noundef %14) #22
  store i64 %15, ptr %13, align 8, !tbaa !29
  %16 = getelementptr inbounds nuw i8, ptr %0, i64 40
  %17 = load i64, ptr %16, align 8, !tbaa !30
  %18 = tail call i64 @rb_gc_location(i64 noundef %17) #22
  store i64 %18, ptr %16, align 8, !tbaa !30
  ret void
}